; Function Attrs: mustprogress nofree norecurse nosync nounwind memory(readwrite, inaccessiblemem: none) uwtable
define void @_Z8IntToExtPKcPcm(ptr noundef readonly %0, ptr noundef writeonly %1, i64 noundef %2) local_unnamed_addr #1 {
  %.not = icmp eq ptr %1, %0
  %.not.i = icmp eq i64 %2, 0
  %or.cond = or i1 %.not, %.not.i
  br i1 %or.cond, label %_Z8strncpyzPcPKcm.exit, label %.preheader.i

.preheader.i:                                     ; preds = %3
  %4 = add i64 %2, -1
  %.not911.i = icmp eq i64 %4, 0
  br i1 %.not911.i, label %.critedge.i, label %.lr.ph.i

.lr.ph.i:                                         ; preds = %.preheader.i, %7
  %5 = phi i64 [ %10, %7 ], [ %4, %.preheader.i ]
  %.0513.i = phi ptr [ %8, %7 ], [ %0, %.preheader.i ]
  %.0612.i = phi ptr [ %9, %7 ], [ %1, %.preheader.i ]
  %6 = load i8, ptr %.0513.i, align 1
  %.not10.i = icmp eq i8 %6, 0
  br i1 %.not10.i, label %.critedge.i, label %7

7:                                                ; preds = %.lr.ph.i
  %8 = getelementptr inbounds i8, ptr %.0513.i, i64 1
  %9 = getelementptr inbounds i8, ptr %.0612.i, i64 1
  store i8 %6, ptr %.0612.i, align 1
  %10 = add i64 %5, -1
  %.not9.i = icmp eq i64 %10, 0
  br i1 %.not9.i, label %.critedge.i, label %.lr.ph.i, !llvm.loop !4

.critedge.i:                                      ; preds = %7, %.lr.ph.i, %.preheader.i
  %.06.lcssa.i = phi ptr [ %1, %.preheader.i ], [ %.0612.i, %.lr.ph.i ], [ %9, %7 ]
  store i8 0, ptr %.06.lcssa.i, align 1
  br label %_Z8strncpyzPcPKcm.exit

_Z8strncpyzPcPKcm.exit:                           ; preds = %.critedge.i, %3
  ret void
}